; Function Attrs: mustprogress uwtable
define internal fastcc void @_ZN6Assimp7OpenGEXL11getRefNamesEPN10ODDLParser7DDLNodeERSt6vectorINSt7__cxx1112basic_stringIcSt11char_traitsIcESaIcEEESaISA_EE(ptr noundef nonnull %node, ptr noundef nonnull align 8 dereferenceable(24) %names) unnamed_addr #7 personality ptr @__gxx_personality_v0 {
entry:
  %name = alloca %"class.std::__cxx11::basic_string", align 8
  %ref.tmp = alloca %"class.std::allocator.0", align 1
  %call = tail call noundef ptr @_ZNK10ODDLParser7DDLNode13getReferencesEv(ptr noundef nonnull align 8 dereferenceable(136) %node)
  %cmp.not = icmp eq ptr %call, null
  br i1 %cmp.not, label %if.end11, label %for.cond.preheader

for.cond.preheader:                               ; preds = %entry
  %0 = load i64, ptr %call, align 8
  %cmp114.not = icmp eq i64 %0, 0
  br i1 %cmp114.not, label %if.end11, label %for.body.lr.ph

for.body.lr.ph:                                   ; preds = %for.cond.preheader
  %m_referencedName = getelementptr inbounds i8, ptr %call, i64 8
  %_M_finish.i = getelementptr inbounds i8, ptr %names, i64 8
  %_M_end_of_storage.i = getelementptr inbounds i8, ptr %names, i64 16
  br label %for.body

for.body:                                         ; preds = %for.body.lr.ph, %for.inc
  %1 = phi i64 [ %0, %for.body.lr.ph ], [ %11, %for.inc ]
  %i.015 = phi i64 [ 0, %for.body.lr.ph ], [ %inc, %for.inc ]
  %2 = load ptr, ptr %m_referencedName, align 8
  %arrayidx = getelementptr inbounds ptr, ptr %2, i64 %i.015
  %3 = load ptr, ptr %arrayidx, align 8
  %cmp2.not = icmp eq ptr %3, null
  br i1 %cmp2.not, label %for.inc, label %land.lhs.true

land.lhs.true:                                    ; preds = %for.body
  %m_id = getelementptr inbounds i8, ptr %3, i64 8
  %4 = load ptr, ptr %m_id, align 8
  %cmp3.not = icmp eq ptr %4, null
  br i1 %cmp3.not, label %for.inc, label %if.then4

if.then4:                                         ; preds = %land.lhs.true
  %m_buffer = getelementptr inbounds i8, ptr %4, i64 16
  %5 = load ptr, ptr %m_buffer, align 8
  call void @_ZNSaIcEC1Ev(ptr noundef nonnull align 1 dereferenceable(1) %ref.tmp) #25
  %call.i9 = invoke noundef ptr @_ZNSt7__cxx1112basic_stringIcSt11char_traitsIcESaIcEE13_M_local_dataEv(ptr noundef nonnull align 8 dereferenceable(32) %name)
          to label %call.i.noexc unwind label %lpad

call.i.noexc:                                     ; preds = %if.then4
  invoke void @_ZNSt7__cxx1112basic_stringIcSt11char_traitsIcESaIcEE12_Alloc_hiderC1EPcRKS3_(ptr noundef nonnull align 8 dereferenceable(8) %name, ptr noundef %call.i9, ptr noundef nonnull align 1 dereferenceable(1) %ref.tmp)
          to label %.noexc unwind label %lpad

.noexc:                                           ; preds = %call.i.noexc
  %cmp.i = icmp eq ptr %5, null
  br i1 %cmp.i, label %if.then.i, label %if.end.i

if.then.i:                                        ; preds = %.noexc
  invoke void @_ZSt19__throw_logic_errorPKc(ptr noundef nonnull @.str.48) #27
          to label %invoke.cont.i unwind label %lpad.i.loopexit.split-lp

invoke.cont.i:                                    ; preds = %if.then.i
  unreachable

lpad.i.loopexit:                                  ; preds = %if.end.i
  %lpad.loopexit = landingpad { ptr, i32 }
          cleanup
  br label %lpad.i

lpad.i.loopexit.split-lp:                         ; preds = %if.then.i
  %lpad.loopexit.split-lp = landingpad { ptr, i32 }
          cleanup
  br label %lpad.i

lpad.i:                                           ; preds = %lpad.i.loopexit.split-lp, %lpad.i.loopexit
  %lpad.phi = phi { ptr, i32 } [ %lpad.loopexit, %lpad.i.loopexit ], [ %lpad.loopexit.split-lp, %lpad.i.loopexit.split-lp ]
  call void @_ZNSaIcED2Ev(ptr noundef nonnull align 1 dereferenceable(1) %name) #25
  br label %lpad.body

if.end.i:                                         ; preds = %.noexc
  %call.i.i = call noundef i64 @strlen(ptr noundef nonnull dereferenceable(1) %5) #25
  %add.ptr.i = getelementptr inbounds i8, ptr %5, i64 %call.i.i
  invoke void @_ZNSt7__cxx1112basic_stringIcSt11char_traitsIcESaIcEE12_M_constructIPKcEEvT_S8_St20forward_iterator_tag(ptr noundef nonnull align 8 dereferenceable(32) %name, ptr noundef nonnull %5, ptr noundef nonnull %add.ptr.i)
          to label %invoke.cont unwind label %lpad.i.loopexit

invoke.cont:                                      ; preds = %if.end.i
  call void @_ZNSaIcED1Ev(ptr noundef nonnull align 1 dereferenceable(1) %ref.tmp) #25
  %call6 = call noundef zeroext i1 @_ZNKSt7__cxx1112basic_stringIcSt11char_traitsIcESaIcEE5emptyEv(ptr noundef nonnull align 8 dereferenceable(32) %name) #25
  br i1 %call6, label %if.end, label %if.then7

if.then7:                                         ; preds = %invoke.cont
  %6 = load ptr, ptr %_M_finish.i, align 8
  %7 = load ptr, ptr %_M_end_of_storage.i, align 8
  %cmp.not.i = icmp eq ptr %6, %7
  br i1 %cmp.not.i, label %if.else.i, label %if.then.i10

if.then.i10:                                      ; preds = %if.then7
  invoke void @_ZNSt7__cxx1112basic_stringIcSt11char_traitsIcESaIcEEC1ERKS4_(ptr noundef nonnull align 8 dereferenceable(32) %6, ptr noundef nonnull align 8 dereferenceable(32) %name)
          to label %.noexc12 unwind label %lpad8

.noexc12:                                         ; preds = %if.then.i10
  %8 = load ptr, ptr %_M_finish.i, align 8
  %incdec.ptr.i = getelementptr inbounds i8, ptr %8, i64 32
  store ptr %incdec.ptr.i, ptr %_M_finish.i, align 8
  br label %if.end

if.else.i:                                        ; preds = %if.then7
  invoke void @_ZNSt6vectorINSt7__cxx1112basic_stringIcSt11char_traitsIcESaIcEEESaIS5_EE17_M_realloc_insertIJRKS5_EEEvN9__gnu_cxx17__normal_iteratorIPS5_S7_EEDpOT_(ptr noundef nonnull align 8 dereferenceable(24) %names, ptr %6, ptr noundef nonnull align 8 dereferenceable(32) %name)
          to label %if.end unwind label %lpad8

lpad:                                             ; preds = %call.i.noexc, %if.then4
  %9 = landingpad { ptr, i32 }
          cleanup
  br label %lpad.body

lpad.body:                                        ; preds = %lpad.i, %lpad
  %eh.lpad-body = phi { ptr, i32 } [ %9, %lpad ], [ %lpad.phi, %lpad.i ]
  call void @_ZNSaIcED1Ev(ptr noundef nonnull align 1 dereferenceable(1) %ref.tmp) #25
  br label %eh.resume

lpad8:                                            ; preds = %if.else.i, %if.then.i10
  %10 = landingpad { ptr, i32 }
          cleanup
  call void @_ZNSt7__cxx1112basic_stringIcSt11char_traitsIcESaIcEED1Ev(ptr noundef nonnull align 8 dereferenceable(32) %name) #25
  br label %eh.resume

if.end:                                           ; preds = %.noexc12, %if.else.i, %invoke.cont
  call void @_ZNSt7__cxx1112basic_stringIcSt11char_traitsIcESaIcEED1Ev(ptr noundef nonnull align 8 dereferenceable(32) %name) #25
  %.pre = load i64, ptr %call, align 8
  br label %for.inc

for.inc:                                          ; preds = %for.body, %land.lhs.true, %if.end
  %11 = phi i64 [ %1, %for.body ], [ %1, %land.lhs.true ], [ %.pre, %if.end ]
  %inc = add nuw i64 %i.015, 1
  %cmp1 = icmp ult i64 %inc, %11
  br i1 %cmp1, label %for.body, label %if.end11, !llvm.loop !41

if.end11:                                         ; preds = %for.inc, %for.cond.preheader, %entry
  ret void

eh.resume:                                        ; preds = %lpad8, %lpad.body
  %.pn = phi { ptr, i32 } [ %10, %lpad8 ], [ %eh.lpad-body, %lpad.body ]
  resume { ptr, i32 } %.pn
}